; Function Attrs: nounwind uwtable
define internal fastcc i32 @getFrameLocation(ptr noundef %0, ptr noundef %1, ptr noundef %2, ptr noundef %3) unnamed_addr #0 {
  store ptr null, ptr %1, align 8
  store ptr null, ptr %2, align 8
  store i64 -1, ptr %3, align 8
  %5 = load ptr, ptr @gdata, align 8
  %6 = getelementptr inbounds i8, ptr %5, i64 528
  %7 = load i32, ptr %6, align 8
  %8 = and i32 %7, 4
  %.not = icmp eq i32 %8, 0
  br i1 %.not, label %10, label %9

9:                                                ; preds = %4
  tail call void @log_message_begin(ptr noundef nonnull @.str.13, ptr noundef nonnull @.str.4, i32 noundef 99) #4
  tail call void (ptr, ...) @log_message_end(ptr noundef nonnull @.str.14, ptr noundef nonnull @.str.42) #4
  %.pre = load ptr, ptr @gdata, align 8
  br label %10

10:                                               ; preds = %4, %9
  %11 = phi ptr [ %5, %4 ], [ %.pre, %9 ]
  %12 = load ptr, ptr %11, align 8
  %13 = load ptr, ptr %12, align 8
  %14 = getelementptr inbounds i8, ptr %13, i64 144
  %15 = load ptr, ptr %14, align 8
  %16 = tail call i32 %15(ptr noundef nonnull %12, ptr noundef %0, i32 noundef 0, ptr noundef nonnull %2, ptr noundef nonnull %3) #4
  %17 = icmp eq i32 %16, 0
  br i1 %17, label %18, label %22

18:                                               ; preds = %10
  %19 = load ptr, ptr %2, align 8
  %.not12 = icmp eq ptr %19, null
  br i1 %.not12, label %22, label %20

20:                                               ; preds = %18
  %21 = tail call i32 @methodClass(ptr noundef nonnull %19, ptr noundef nonnull %1) #4
  br label %22

22:                                               ; preds = %20, %18, %10
  %.0 = phi i32 [ %21, %20 ], [ 0, %18 ], [ %16, %10 ]
  ret i32 %.0
}